target datalayout = "e-m:e-p270:32:32-p271:32:32-p272:64:64-i64:64-i128:128-f80:128-n8:16:32:64-S128"
target triple = "x86_64-pc-linux-gnu"

%struct.ec_method_st = type { i32, i32, ptr, ptr, ptr, ptr, ptr, ptr, ptr, ptr, ptr, ptr, ptr, ptr, ptr, ptr, ptr, ptr, ptr, ptr, ptr, ptr, ptr, ptr, ptr, ptr, ptr, ptr, ptr, ptr, ptr, ptr, ptr, ptr, ptr, ptr, ptr, ptr, ptr, ptr, ptr, ptr, ptr, ptr, ptr, ptr, ptr, ptr, ptr, ptr, ptr, ptr, ptr, ptr, ptr, ptr, ptr }
%struct.ec_group_st = type { ptr, ptr, ptr, ptr, i32, i32, i32, i32, ptr, i64, ptr, [6 x i32], ptr, ptr, i32, ptr, ptr, ptr, ptr, i32, %union.anon, ptr, ptr }
%union.anon = type { ptr }

@.str = private unnamed_addr constant [32 x i8] c"../openssl/crypto/ec/ecp_smpl.c\00", align 1
@__func__.ossl_ec_GFp_simple_group_set_curve = private unnamed_addr constant [35 x i8] c"ossl_ec_GFp_simple_group_set_curve\00", align 1

; Function Attrs: nounwind uwtable
define i32 @ossl_ec_GFp_simple_group_set_curve(ptr noundef %0, ptr noundef %1, ptr noundef %2, ptr noundef %3, ptr noundef %4) #0 {
  %6 = alloca i32, align 4
  %7 = alloca ptr, align 8
  %8 = alloca ptr, align 8
  %9 = alloca ptr, align 8
  %10 = alloca ptr, align 8
  %11 = alloca ptr, align 8
  %12 = alloca i32, align 4
  %13 = alloca ptr, align 8
  %14 = alloca ptr, align 8
  %15 = alloca i32, align 4
  store ptr %0, ptr %7, align 8, !tbaa !3
  store ptr %1, ptr %8, align 8, !tbaa !21
  store ptr %2, ptr %9, align 8, !tbaa !21
  store ptr %3, ptr %10, align 8, !tbaa !21
  store ptr %4, ptr %11, align 8, !tbaa !22
  call void @llvm.lifetime.start.p0(i64 4, ptr %12) #3
  store i32 0, ptr %12, align 4, !tbaa !24
  call void @llvm.lifetime.start.p0(i64 8, ptr %13) #3
  store ptr null, ptr %13, align 8, !tbaa !22
  call void @llvm.lifetime.start.p0(i64 8, ptr %14) #3
  %16 = load ptr, ptr %8, align 8, !tbaa !21
  %17 = call i32 @BN_num_bits(ptr noundef %16)
  %18 = icmp sle i32 %17, 2
  br i1 %18, label %23, label %19

19:                                               ; preds = %5
  %20 = load ptr, ptr %8, align 8, !tbaa !21
  %21 = call i32 @BN_is_odd(ptr noundef %20)
  %22 = icmp ne i32 %21, 0
  br i1 %22, label %24, label %23

23:                                               ; preds = %19, %5
  call void @ERR_new()
  call void @ERR_set_debug(ptr noundef @.str, i32 noundef 151, ptr noundef @__func__.ossl_ec_GFp_simple_group_set_curve)
  call void (i32, i32, ptr, ...) @ERR_set_error(i32 noundef 16, i32 noundef 103, ptr noundef null)
  store i32 0, ptr %6, align 4
  store i32 1, ptr %15, align 4
  br label %148

24:                                               ; preds = %19
  %25 = load ptr, ptr %11, align 8, !tbaa !22
  %26 = icmp eq ptr %25, null
  br i1 %26, label %27, label %36

27:                                               ; preds = %24
  %28 = load ptr, ptr %7, align 8, !tbaa !3
  %29 = getelementptr inbounds nuw %struct.ec_group_st, ptr %28, i32 0, i32 21
  %30 = load ptr, ptr %29, align 8, !tbaa !25
  %31 = call ptr @BN_CTX_new_ex(ptr noundef %30)
  store ptr %31, ptr %13, align 8, !tbaa !22
  store ptr %31, ptr %11, align 8, !tbaa !22
  %32 = load ptr, ptr %11, align 8, !tbaa !22
  %33 = icmp eq ptr %32, null
  br i1 %33, label %34, label %35

34:                                               ; preds = %27
  store i32 0, ptr %6, align 4
  store i32 1, ptr %15, align 4
  br label %148

35:                                               ; preds = %27
  br label %36

36:                                               ; preds = %35, %24
  %37 = load ptr, ptr %11, align 8, !tbaa !22
  call void @BN_CTX_start(ptr noundef %37)
  %38 = load ptr, ptr %11, align 8, !tbaa !22
  %39 = call ptr @BN_CTX_get(ptr noundef %38)
  store ptr %39, ptr %14, align 8, !tbaa !21
  %40 = load ptr, ptr %14, align 8, !tbaa !21
  %41 = icmp eq ptr %40, null
  br i1 %41, label %42, label %43

42:                                               ; preds = %36
  br label %144

43:                                               ; preds = %36
  %44 = load ptr, ptr %7, align 8, !tbaa !3
  %45 = getelementptr inbounds nuw %struct.ec_group_st, ptr %44, i32 0, i32 10
  %46 = load ptr, ptr %45, align 8, !tbaa !8
  %47 = load ptr, ptr %8, align 8, !tbaa !21
  %48 = call ptr @BN_copy(ptr noundef %46, ptr noundef %47)
  %49 = icmp ne ptr %48, null
  br i1 %49, label %51, label %50

50:                                               ; preds = %43
  br label %144

51:                                               ; preds = %43
  %52 = load ptr, ptr %7, align 8, !tbaa !3
  %53 = getelementptr inbounds nuw %struct.ec_group_st, ptr %52, i32 0, i32 10
  %54 = load ptr, ptr %53, align 8, !tbaa !8
  call void @BN_set_negative(ptr noundef %54, i32 noundef 0)
  %55 = load ptr, ptr %14, align 8, !tbaa !21
  %56 = load ptr, ptr %9, align 8, !tbaa !21
  %57 = load ptr, ptr %8, align 8, !tbaa !21
  %58 = load ptr, ptr %11, align 8, !tbaa !22
  %59 = call i32 @BN_nnmod(ptr noundef %55, ptr noundef %56, ptr noundef %57, ptr noundef %58)
  %60 = icmp ne i32 %59, 0
  br i1 %60, label %62, label %61

61:                                               ; preds = %51
  br label %144

62:                                               ; preds = %51
  %63 = load ptr, ptr %7, align 8, !tbaa !3
  %64 = getelementptr inbounds nuw %struct.ec_group_st, ptr %63, i32 0, i32 0
  %65 = load ptr, ptr %64, align 8, !tbaa !26
  %66 = getelementptr inbounds nuw %struct.ec_method_st, ptr %65, i32 0, i32 36
  %67 = load ptr, ptr %66, align 8, !tbaa !27
  %68 = icmp ne ptr %67, null
  br i1 %68, label %69, label %85

69:                                               ; preds = %62
  %70 = load ptr, ptr %7, align 8, !tbaa !3
  %71 = getelementptr inbounds nuw %struct.ec_group_st, ptr %70, i32 0, i32 0
  %72 = load ptr, ptr %71, align 8, !tbaa !26
  %73 = getelementptr inbounds nuw %struct.ec_method_st, ptr %72, i32 0, i32 36
  %74 = load ptr, ptr %73, align 8, !tbaa !27
  %75 = load ptr, ptr %7, align 8, !tbaa !3
  %76 = load ptr, ptr %7, align 8, !tbaa !3
  %77 = getelementptr inbounds nuw %struct.ec_group_st, ptr %76, i32 0, i32 12
  %78 = load ptr, ptr %77, align 8, !tbaa !18
  %79 = load ptr, ptr %14, align 8, !tbaa !21
  %80 = load ptr, ptr %11, align 8, !tbaa !22
  %81 = call i32 %74(ptr noundef %75, ptr noundef %78, ptr noundef %79, ptr noundef %80)
  %82 = icmp ne i32 %81, 0
  br i1 %82, label %84, label %83

83:                                               ; preds = %69
  br label %144

84:                                               ; preds = %69
  br label %94

85:                                               ; preds = %62
  %86 = load ptr, ptr %7, align 8, !tbaa !3
  %87 = getelementptr inbounds nuw %struct.ec_group_st, ptr %86, i32 0, i32 12
  %88 = load ptr, ptr %87, align 8, !tbaa !18
  %89 = load ptr, ptr %14, align 8, !tbaa !21
  %90 = call ptr @BN_copy(ptr noundef %88, ptr noundef %89)
  %91 = icmp ne ptr %90, null
  br i1 %91, label %93, label %92

92:                                               ; preds = %85
  br label %144

93:                                               ; preds = %85
  br label %94

94:                                               ; preds = %93, %84
  %95 = load ptr, ptr %7, align 8, !tbaa !3
  %96 = getelementptr inbounds nuw %struct.ec_group_st, ptr %95, i32 0, i32 13
  %97 = load ptr, ptr %96, align 8, !tbaa !19
  %98 = load ptr, ptr %10, align 8, !tbaa !21
  %99 = load ptr, ptr %8, align 8, !tbaa !21
  %100 = load ptr, ptr %11, align 8, !tbaa !22
  %101 = call i32 @BN_nnmod(ptr noundef %97, ptr noundef %98, ptr noundef %99, ptr noundef %100)
  %102 = icmp ne i32 %101, 0
  br i1 %102, label %104, label %103

103:                                              ; preds = %94
  br label %144

104:                                              ; preds = %94
  %105 = load ptr, ptr %7, align 8, !tbaa !3
  %106 = getelementptr inbounds nuw %struct.ec_group_st, ptr %105, i32 0, i32 0
  %107 = load ptr, ptr %106, align 8, !tbaa !26
  %108 = getelementptr inbounds nuw %struct.ec_method_st, ptr %107, i32 0, i32 36
  %109 = load ptr, ptr %108, align 8, !tbaa !27
  %110 = icmp ne ptr %109, null
  br i1 %110, label %111, label %129

111:                                              ; preds = %104
  %112 = load ptr, ptr %7, align 8, !tbaa !3
  %113 = getelementptr inbounds nuw %struct.ec_group_st, ptr %112, i32 0, i32 0
  %114 = load ptr, ptr %113, align 8, !tbaa !26
  %115 = getelementptr inbounds nuw %struct.ec_method_st, ptr %114, i32 0, i32 36
  %116 = load ptr, ptr %115, align 8, !tbaa !27
  %117 = load ptr, ptr %7, align 8, !tbaa !3
  %118 = load ptr, ptr %7, align 8, !tbaa !3
  %119 = getelementptr inbounds nuw %struct.ec_group_st, ptr %118, i32 0, i32 13
  %120 = load ptr, ptr %119, align 8, !tbaa !19
  %121 = load ptr, ptr %7, align 8, !tbaa !3
  %122 = getelementptr inbounds nuw %struct.ec_group_st, ptr %121, i32 0, i32 13
  %123 = load ptr, ptr %122, align 8, !tbaa !19
  %124 = load ptr, ptr %11, align 8, !tbaa !22
  %125 = call i32 %116(ptr noundef %117, ptr noundef %120, ptr noundef %123, ptr noundef %124)
  %126 = icmp ne i32 %125, 0
  br i1 %126, label %128, label %127

127:                                              ; preds = %111
  br label %144

128:                                              ; preds = %111
  br label %129

129:                                              ; preds = %128, %104
  %130 = load ptr, ptr %14, align 8, !tbaa !21
  %131 = call i32 @BN_add_word(ptr noundef %130, i64 noundef 3)
  %132 = icmp ne i32 %131, 0
  br i1 %132, label %134, label %133

133:                                              ; preds = %129
  br label %144

134:                                              ; preds = %129
  %135 = load ptr, ptr %14, align 8, !tbaa !21
  %136 = load ptr, ptr %7, align 8, !tbaa !3
  %137 = getelementptr inbounds nuw %struct.ec_group_st, ptr %136, i32 0, i32 10
  %138 = load ptr, ptr %137, align 8, !tbaa !8
  %139 = call i32 @BN_cmp(ptr noundef %135, ptr noundef %138)
  %140 = icmp eq i32 0, %139
  %141 = zext i1 %140 to i32
  %142 = load ptr, ptr %7, align 8, !tbaa !3
  %143 = getelementptr inbounds nuw %struct.ec_group_st, ptr %142, i32 0, i32 14
  store i32 %141, ptr %143, align 8, !tbaa !20
  store i32 1, ptr %12, align 4, !tbaa !24
  br label %144

144:                                              ; preds = %134, %133, %127, %103, %92, %83, %61, %50, %42
  %145 = load ptr, ptr %11, align 8, !tbaa !22
  call void @BN_CTX_end(ptr noundef %145)
  %146 = load ptr, ptr %13, align 8, !tbaa !22
  call void @BN_CTX_free(ptr noundef %146)
  %147 = load i32, ptr %12, align 4, !tbaa !24
  store i32 %147, ptr %6, align 4
  store i32 1, ptr %15, align 4
  br label %148

148:                                              ; preds = %144, %34, %23
  call void @llvm.lifetime.end.p0(i64 8, ptr %14) #3
  call void @llvm.lifetime.end.p0(i64 8, ptr %13) #3
  call void @llvm.lifetime.end.p0(i64 4, ptr %12) #3
  %149 = load i32, ptr %6, align 4
  ret i32 %149
}