; Function Attrs: nounwind uwtable
define range(i32 0, 2) i32 @ossl_ec_GFp_simple_group_set_curve(ptr noundef %0, ptr noundef %1, ptr noundef %2, ptr noundef %3, ptr noundef %4) #1 {
  %6 = tail call i32 @BN_num_bits(ptr noundef %1) #4
  %7 = icmp slt i32 %6, 3
  br i1 %7, label %10, label %8

8:                                                ; preds = %5
  %9 = tail call i32 @BN_is_odd(ptr noundef %1) #4
  %.not = icmp eq i32 %9, 0
  br i1 %.not, label %10, label %11

10:                                               ; preds = %8, %5
  tail call void @ERR_new() #4
  tail call void @ERR_set_debug(ptr noundef nonnull @.str, i32 noundef 151, ptr noundef nonnull @__func__.ossl_ec_GFp_simple_group_set_curve) #4
  tail call void (i32, i32, ptr, ...) @ERR_set_error(i32 noundef 16, i32 noundef 103, ptr noundef null) #4
  br label %58

11:                                               ; preds = %8
  %12 = icmp eq ptr %4, null
  br i1 %12, label %13, label %18

13:                                               ; preds = %11
  %14 = getelementptr inbounds nuw i8, ptr %0, i64 168
  %15 = load ptr, ptr %14, align 8, !tbaa !19
  %16 = tail call ptr @BN_CTX_new_ex(ptr noundef %15) #4
  %17 = icmp eq ptr %16, null
  br i1 %17, label %58, label %18

18:                                               ; preds = %13, %11
  %.042 = phi ptr [ %16, %13 ], [ %4, %11 ]
  %.040 = phi ptr [ %16, %13 ], [ null, %11 ]
  tail call void @BN_CTX_start(ptr noundef nonnull %.042) #4
  %19 = tail call ptr @BN_CTX_get(ptr noundef nonnull %.042) #4
  %20 = icmp eq ptr %19, null
  br i1 %20, label %57, label %21

21:                                               ; preds = %18
  %22 = getelementptr inbounds nuw i8, ptr %0, i64 64
  %23 = load ptr, ptr %22, align 8, !tbaa !3
  %24 = tail call ptr @BN_copy(ptr noundef %23, ptr noundef %1) #4
  %.not48 = icmp eq ptr %24, null
  br i1 %.not48, label %57, label %25

25:                                               ; preds = %21
  %26 = load ptr, ptr %22, align 8, !tbaa !3
  tail call void @BN_set_negative(ptr noundef %26, i32 noundef 0) #4
  %27 = tail call i32 @BN_nnmod(ptr noundef nonnull %19, ptr noundef %2, ptr noundef %1, ptr noundef nonnull %.042) #4
  %.not49 = icmp eq i32 %27, 0
  br i1 %.not49, label %57, label %28

28:                                               ; preds = %25
  %29 = load ptr, ptr %0, align 8, !tbaa !20
  %30 = getelementptr inbounds nuw i8, ptr %29, i64 280
  %31 = load ptr, ptr %30, align 8, !tbaa !21
  %.not50 = icmp eq ptr %31, null
  %32 = getelementptr inbounds nuw i8, ptr %0, i64 96
  %33 = load ptr, ptr %32, align 8, !tbaa !16
  br i1 %.not50, label %36, label %34

34:                                               ; preds = %28
  %35 = tail call i32 %31(ptr noundef nonnull %0, ptr noundef %33, ptr noundef nonnull %19, ptr noundef nonnull %.042) #4
  %.not52 = icmp eq i32 %35, 0
  br i1 %.not52, label %57, label %38

36:                                               ; preds = %28
  %37 = tail call ptr @BN_copy(ptr noundef %33, ptr noundef nonnull %19) #4
  %.not51 = icmp eq ptr %37, null
  br i1 %.not51, label %57, label %38

38:                                               ; preds = %36, %34
  %39 = getelementptr inbounds nuw i8, ptr %0, i64 104
  %40 = load ptr, ptr %39, align 8, !tbaa !17
  %41 = tail call i32 @BN_nnmod(ptr noundef %40, ptr noundef %3, ptr noundef %1, ptr noundef nonnull %.042) #4
  %.not53 = icmp eq i32 %41, 0
  br i1 %.not53, label %57, label %42

42:                                               ; preds = %38
  %43 = load ptr, ptr %0, align 8, !tbaa !20
  %44 = getelementptr inbounds nuw i8, ptr %43, i64 280
  %45 = load ptr, ptr %44, align 8, !tbaa !21
  %.not54 = icmp eq ptr %45, null
  br i1 %.not54, label %49, label %46

46:                                               ; preds = %42
  %47 = load ptr, ptr %39, align 8, !tbaa !17
  %48 = tail call i32 %45(ptr noundef nonnull %0, ptr noundef %47, ptr noundef %47, ptr noundef nonnull %.042) #4
  %.not55 = icmp eq i32 %48, 0
  br i1 %.not55, label %57, label %49

49:                                               ; preds = %46, %42
  %50 = tail call i32 @BN_add_word(ptr noundef nonnull %19, i64 noundef 3) #4
  %.not56 = icmp eq i32 %50, 0
  br i1 %.not56, label %57, label %51

51:                                               ; preds = %49
  %52 = load ptr, ptr %22, align 8, !tbaa !3
  %53 = tail call i32 @BN_cmp(ptr noundef nonnull %19, ptr noundef %52) #4
  %54 = icmp eq i32 %53, 0
  %55 = zext i1 %54 to i32
  %56 = getelementptr inbounds nuw i8, ptr %0, i64 112
  store i32 %55, ptr %56, align 8, !tbaa !18
  br label %57

57:                                               ; preds = %49, %46, %38, %36, %34, %25, %21, %18, %51
  %.041 = phi i32 [ 0, %18 ], [ 1, %51 ], [ 0, %49 ], [ 0, %46 ], [ 0, %38 ], [ 0, %34 ], [ 0, %36 ], [ 0, %25 ], [ 0, %21 ]
  tail call void @BN_CTX_end(ptr noundef nonnull %.042) #4
  tail call void @BN_CTX_free(ptr noundef %.040) #4
  br label %58

58:                                               ; preds = %13, %57, %10
  %.0 = phi i32 [ 0, %10 ], [ %.041, %57 ], [ 0, %13 ]
  ret i32 %.0
}